target datalayout = "e-m:e-p270:32:32-p271:32:32-p272:64:64-i64:64-i128:128-f80:128-n8:16:32:64-S128"
target triple = "x86_64-pc-linux-gnu"

%struct.AVFilterContext = type { ptr, ptr, ptr, ptr, ptr, i32, ptr, ptr, i32, ptr, ptr, i32, i32, ptr, ptr, ptr, ptr, i32, ptr, i32, i32 }
%struct.VectorscopeContext = type { ptr, i32, i32, float, [4 x i16], [2 x float], [4 x i32], [4 x i32], i32, i32, i32, i32, i32, i32, i32, i32, i32, i32, i32, float, float, float, float, [2 x i32], i32, i32, i32, i32, i32, ptr, ptr, ptr, ptr }
%struct.AVFilterLink = type { ptr, ptr, ptr, ptr, i32, i32, i32, i32, %struct.AVRational, i32, i32, i32, %struct.AVChannelLayout, %struct.AVRational, ptr, i32, %struct.AVFilterFormatsConfig, %struct.AVFilterFormatsConfig }
%struct.AVChannelLayout = type { i32, i32, %union.anon.1, ptr }
%union.anon.1 = type { i64 }
%struct.AVRational = type { i32, i32 }
%struct.AVFilterFormatsConfig = type { ptr, ptr, ptr, ptr, ptr }
%struct.AVFrame = type { [8 x ptr], [8 x i32], ptr, i32, i32, i32, i32, i32, %struct.AVRational, i64, i64, %struct.AVRational, i32, ptr, i32, i32, [8 x ptr], ptr, i32, ptr, i32, i32, i32, i32, i32, i32, i32, i64, ptr, i32, ptr, ptr, i64, i64, i64, i64, ptr, %struct.AVChannelLayout, i64 }

; Function Attrs: nounwind uwtable
define internal i32 @filter_frame(ptr noundef %0, ptr noundef %1) #1 {
  %3 = alloca i32, align 4
  %4 = alloca ptr, align 8
  %5 = alloca ptr, align 8
  %6 = alloca ptr, align 8
  %7 = alloca ptr, align 8
  %8 = alloca ptr, align 8
  %9 = alloca ptr, align 8
  %10 = alloca i32, align 4
  %11 = alloca i32, align 4
  store ptr %0, ptr %4, align 8, !tbaa !25
  store ptr %1, ptr %5, align 8, !tbaa !60
  call void @llvm.lifetime.start.p0(i64 8, ptr %6) #11
  %12 = load ptr, ptr %4, align 8, !tbaa !25
  %13 = getelementptr inbounds nuw %struct.AVFilterLink, ptr %12, i32 0, i32 2
  %14 = load ptr, ptr %13, align 8, !tbaa !62
  store ptr %14, ptr %6, align 8, !tbaa !4
  call void @llvm.lifetime.start.p0(i64 8, ptr %7) #11
  %15 = load ptr, ptr %6, align 8, !tbaa !4
  %16 = getelementptr inbounds nuw %struct.AVFilterContext, ptr %15, i32 0, i32 9
  %17 = load ptr, ptr %16, align 8, !tbaa !9
  store ptr %17, ptr %7, align 8, !tbaa !22
  call void @llvm.lifetime.start.p0(i64 8, ptr %8) #11
  %18 = load ptr, ptr %6, align 8, !tbaa !4
  %19 = getelementptr inbounds nuw %struct.AVFilterContext, ptr %18, i32 0, i32 7
  %20 = load ptr, ptr %19, align 8, !tbaa !59
  %21 = getelementptr inbounds ptr, ptr %20, i64 0
  %22 = load ptr, ptr %21, align 8, !tbaa !25
  store ptr %22, ptr %8, align 8, !tbaa !25
  call void @llvm.lifetime.start.p0(i64 8, ptr %9) #11
  call void @llvm.lifetime.start.p0(i64 4, ptr %10) #11
  %23 = load ptr, ptr %7, align 8, !tbaa !22
  %24 = getelementptr inbounds nuw %struct.VectorscopeContext, ptr %23, i32 0, i32 20
  %25 = load float, ptr %24, align 4, !tbaa !63
  %26 = load ptr, ptr %7, align 8, !tbaa !22
  %27 = getelementptr inbounds nuw %struct.VectorscopeContext, ptr %26, i32 0, i32 14
  %28 = load i32, ptr %27, align 4, !tbaa !64
  %29 = sub nsw i32 %28, 1
  %30 = sitofp i32 %29 to float
  %31 = fmul nsz float %25, %30
  %32 = fptoui float %31 to i16
  %33 = load ptr, ptr %7, align 8, !tbaa !22
  %34 = getelementptr inbounds nuw %struct.VectorscopeContext, ptr %33, i32 0, i32 4
  %35 = getelementptr inbounds [4 x i16], ptr %34, i64 0, i64 3
  store i16 %32, ptr %35, align 2, !tbaa !65
  %36 = load ptr, ptr %7, align 8, !tbaa !22
  %37 = getelementptr inbounds nuw %struct.VectorscopeContext, ptr %36, i32 0, i32 5
  %38 = getelementptr inbounds [2 x float], ptr %37, i64 0, i64 0
  %39 = load float, ptr %38, align 4, !tbaa !67
  %40 = fadd nsz float %39, 1.000000e+00
  %41 = fmul nsz float 5.000000e-01, %40
  %42 = load ptr, ptr %7, align 8, !tbaa !22
  %43 = getelementptr inbounds nuw %struct.VectorscopeContext, ptr %42, i32 0, i32 14
  %44 = load i32, ptr %43, align 4, !tbaa !64
  %45 = sub nsw i32 %44, 1
  %46 = sitofp i32 %45 to float
  %47 = fmul nsz float %41, %46
  %48 = fptosi float %47 to i32
  %49 = load ptr, ptr %7, align 8, !tbaa !22
  %50 = getelementptr inbounds nuw %struct.VectorscopeContext, ptr %49, i32 0, i32 23
  %51 = getelementptr inbounds [2 x i32], ptr %50, i64 0, i64 0
  store i32 %48, ptr %51, align 8, !tbaa !47
  %52 = load ptr, ptr %7, align 8, !tbaa !22
  %53 = getelementptr inbounds nuw %struct.VectorscopeContext, ptr %52, i32 0, i32 5
  %54 = getelementptr inbounds [2 x float], ptr %53, i64 0, i64 1
  %55 = load float, ptr %54, align 4, !tbaa !67
  %56 = fadd nsz float %55, 1.000000e+00
  %57 = fmul nsz float 5.000000e-01, %56
  %58 = load ptr, ptr %7, align 8, !tbaa !22
  %59 = getelementptr inbounds nuw %struct.VectorscopeContext, ptr %58, i32 0, i32 14
  %60 = load i32, ptr %59, align 4, !tbaa !64
  %61 = sub nsw i32 %60, 1
  %62 = sitofp i32 %61 to float
  %63 = fmul nsz float %57, %62
  %64 = fptosi float %63 to i32
  %65 = load ptr, ptr %7, align 8, !tbaa !22
  %66 = getelementptr inbounds nuw %struct.VectorscopeContext, ptr %65, i32 0, i32 23
  %67 = getelementptr inbounds [2 x i32], ptr %66, i64 0, i64 1
  store i32 %64, ptr %67, align 4, !tbaa !47
  %68 = load ptr, ptr %7, align 8, !tbaa !22
  %69 = getelementptr inbounds nuw %struct.VectorscopeContext, ptr %68, i32 0, i32 3
  %70 = load float, ptr %69, align 8, !tbaa !68
  %71 = load ptr, ptr %7, align 8, !tbaa !22
  %72 = getelementptr inbounds nuw %struct.VectorscopeContext, ptr %71, i32 0, i32 14
  %73 = load i32, ptr %72, align 4, !tbaa !64
  %74 = sub nsw i32 %73, 1
  %75 = sitofp i32 %74 to float
  %76 = fmul nsz float %70, %75
  %77 = fptosi float %76 to i32
  %78 = load ptr, ptr %7, align 8, !tbaa !22
  %79 = getelementptr inbounds nuw %struct.VectorscopeContext, ptr %78, i32 0, i32 2
  store i32 %77, ptr %79, align 4, !tbaa !69
  %80 = load ptr, ptr %7, align 8, !tbaa !22
  %81 = getelementptr inbounds nuw %struct.VectorscopeContext, ptr %80, i32 0, i32 27
  %82 = load i32, ptr %81, align 4, !tbaa !70
  %83 = icmp ne i32 %82, 0
  br i1 %83, label %84, label %97

84:                                               ; preds = %2
  %85 = load ptr, ptr %7, align 8, !tbaa !22
  %86 = getelementptr inbounds nuw %struct.VectorscopeContext, ptr %85, i32 0, i32 15
  %87 = load i32, ptr %86, align 8, !tbaa !71
  %88 = sub nsw i32 %87, 8
  %89 = mul nsw i32 %88, 2
  %90 = load ptr, ptr %7, align 8, !tbaa !22
  %91 = getelementptr inbounds nuw %struct.VectorscopeContext, ptr %90, i32 0, i32 27
  %92 = load i32, ptr %91, align 4, !tbaa !70
  %93 = add nsw i32 %89, %92
  %94 = sub nsw i32 %93, 1
  %95 = load ptr, ptr %7, align 8, !tbaa !22
  %96 = getelementptr inbounds nuw %struct.VectorscopeContext, ptr %95, i32 0, i32 28
  store i32 %94, ptr %96, align 8, !tbaa !72
  br label %121

97:                                               ; preds = %2
  %98 = load ptr, ptr %5, align 8, !tbaa !60
  %99 = getelementptr inbounds nuw %struct.AVFrame, ptr %98, i32 0, i32 25
  %100 = load i32, ptr %99, align 4, !tbaa !73
  switch i32 %100, label %111 [
    i32 6, label %101
    i32 5, label %101
    i32 1, label %110
  ]

101:                                              ; preds = %97, %97
  %102 = load ptr, ptr %7, align 8, !tbaa !22
  %103 = getelementptr inbounds nuw %struct.VectorscopeContext, ptr %102, i32 0, i32 15
  %104 = load i32, ptr %103, align 8, !tbaa !71
  %105 = sub nsw i32 %104, 8
  %106 = mul nsw i32 %105, 2
  %107 = add nsw i32 %106, 0
  %108 = load ptr, ptr %7, align 8, !tbaa !22
  %109 = getelementptr inbounds nuw %struct.VectorscopeContext, ptr %108, i32 0, i32 28
  store i32 %107, ptr %109, align 8, !tbaa !72
  br label %120

110:                                              ; preds = %97
  br label %111

111:                                              ; preds = %97, %110
  %112 = load ptr, ptr %7, align 8, !tbaa !22
  %113 = getelementptr inbounds nuw %struct.VectorscopeContext, ptr %112, i32 0, i32 15
  %114 = load i32, ptr %113, align 8, !tbaa !71
  %115 = sub nsw i32 %114, 8
  %116 = mul nsw i32 %115, 2
  %117 = add nsw i32 %116, 1
  %118 = load ptr, ptr %7, align 8, !tbaa !22
  %119 = getelementptr inbounds nuw %struct.VectorscopeContext, ptr %118, i32 0, i32 28
  store i32 %117, ptr %119, align 8, !tbaa !72
  br label %120

120:                                              ; preds = %111, %101
  br label %121

121:                                              ; preds = %120, %84
  %122 = load ptr, ptr %8, align 8, !tbaa !25
  %123 = load ptr, ptr %8, align 8, !tbaa !25
  %124 = getelementptr inbounds nuw %struct.AVFilterLink, ptr %123, i32 0, i32 6
  %125 = load i32, ptr %124, align 8, !tbaa !77
  %126 = load ptr, ptr %8, align 8, !tbaa !25
  %127 = getelementptr inbounds nuw %struct.AVFilterLink, ptr %126, i32 0, i32 7
  %128 = load i32, ptr %127, align 4, !tbaa !78
  %129 = call ptr @ff_get_video_buffer(ptr noundef %122, i32 noundef %125, i32 noundef %128)
  store ptr %129, ptr %9, align 8, !tbaa !60
  %130 = load ptr, ptr %9, align 8, !tbaa !60
  %131 = icmp ne ptr %130, null
  br i1 %131, label %133, label %132

132:                                              ; preds = %121
  call void @av_frame_free(ptr noundef %5)
  store i32 -12, ptr %3, align 4
  store i32 1, ptr %11, align 4
  br label %214

133:                                              ; preds = %121
  %134 = load ptr, ptr %9, align 8, !tbaa !60
  %135 = load ptr, ptr %5, align 8, !tbaa !60
  %136 = call i32 @av_frame_copy_props(ptr noundef %134, ptr noundef %135)
  %137 = load ptr, ptr %7, align 8, !tbaa !22
  %138 = getelementptr inbounds nuw %struct.VectorscopeContext, ptr %137, i32 0, i32 31
  %139 = load ptr, ptr %138, align 8, !tbaa !79
  %140 = load ptr, ptr %7, align 8, !tbaa !22
  %141 = load ptr, ptr %5, align 8, !tbaa !60
  %142 = load ptr, ptr %9, align 8, !tbaa !60
  %143 = load ptr, ptr %7, align 8, !tbaa !22
  %144 = getelementptr inbounds nuw %struct.VectorscopeContext, ptr %143, i32 0, i32 12
  %145 = load i32, ptr %144, align 4, !tbaa !80
  call void %139(ptr noundef %140, ptr noundef %141, ptr noundef %142, i32 noundef %145)
  %146 = load ptr, ptr %7, align 8, !tbaa !22
  %147 = getelementptr inbounds nuw %struct.VectorscopeContext, ptr %146, i32 0, i32 32
  %148 = load ptr, ptr %147, align 8, !tbaa !81
  %149 = load ptr, ptr %7, align 8, !tbaa !22
  %150 = load ptr, ptr %9, align 8, !tbaa !60
  %151 = load ptr, ptr %7, align 8, !tbaa !22
  %152 = getelementptr inbounds nuw %struct.VectorscopeContext, ptr %151, i32 0, i32 10
  %153 = load i32, ptr %152, align 4, !tbaa !41
  %154 = load ptr, ptr %7, align 8, !tbaa !22
  %155 = getelementptr inbounds nuw %struct.VectorscopeContext, ptr %154, i32 0, i32 11
  %156 = load i32, ptr %155, align 8, !tbaa !45
  %157 = load ptr, ptr %7, align 8, !tbaa !22
  %158 = getelementptr inbounds nuw %struct.VectorscopeContext, ptr %157, i32 0, i32 12
  %159 = load i32, ptr %158, align 4, !tbaa !80
  %160 = load ptr, ptr %7, align 8, !tbaa !22
  %161 = getelementptr inbounds nuw %struct.VectorscopeContext, ptr %160, i32 0, i32 28
  %162 = load i32, ptr %161, align 8, !tbaa !72
  call void %148(ptr noundef %149, ptr noundef %150, i32 noundef %153, i32 noundef %156, i32 noundef %159, i32 noundef %162)
  store i32 0, ptr %10, align 4, !tbaa !47
  br label %163

163:                                              ; preds = %207, %133
  %164 = load i32, ptr %10, align 4, !tbaa !47
  %165 = icmp slt i32 %164, 4
  br i1 %165, label %166, label %210

166:                                              ; preds = %163
  %167 = load ptr, ptr %9, align 8, !tbaa !60
  %168 = getelementptr inbounds nuw %struct.AVFrame, ptr %167, i32 0, i32 0
  %169 = load i32, ptr %10, align 4, !tbaa !47
  %170 = sext i32 %169 to i64
  %171 = getelementptr inbounds [8 x ptr], ptr %168, i64 0, i64 %170
  %172 = load ptr, ptr %171, align 8, !tbaa !82
  %173 = icmp ne ptr %172, null
  br i1 %173, label %174, label %206

174:                                              ; preds = %166
  %175 = load ptr, ptr %7, align 8, !tbaa !22
  %176 = getelementptr inbounds nuw %struct.VectorscopeContext, ptr %175, i32 0, i32 14
  %177 = load i32, ptr %176, align 4, !tbaa !64
  %178 = sub nsw i32 %177, 1
  %179 = load ptr, ptr %9, align 8, !tbaa !60
  %180 = getelementptr inbounds nuw %struct.AVFrame, ptr %179, i32 0, i32 1
  %181 = load i32, ptr %10, align 4, !tbaa !47
  %182 = sext i32 %181 to i64
  %183 = getelementptr inbounds [8 x i32], ptr %180, i64 0, i64 %182
  %184 = load i32, ptr %183, align 4, !tbaa !47
  %185 = mul nsw i32 %178, %184
  %186 = load ptr, ptr %9, align 8, !tbaa !60
  %187 = getelementptr inbounds nuw %struct.AVFrame, ptr %186, i32 0, i32 0
  %188 = load i32, ptr %10, align 4, !tbaa !47
  %189 = sext i32 %188 to i64
  %190 = getelementptr inbounds [8 x ptr], ptr %187, i64 0, i64 %189
  %191 = load ptr, ptr %190, align 8, !tbaa !82
  %192 = sext i32 %185 to i64
  %193 = getelementptr inbounds i8, ptr %191, i64 %192
  store ptr %193, ptr %190, align 8, !tbaa !82
  %194 = load ptr, ptr %9, align 8, !tbaa !60
  %195 = getelementptr inbounds nuw %struct.AVFrame, ptr %194, i32 0, i32 1
  %196 = load i32, ptr %10, align 4, !tbaa !47
  %197 = sext i32 %196 to i64
  %198 = getelementptr inbounds [8 x i32], ptr %195, i64 0, i64 %197
  %199 = load i32, ptr %198, align 4, !tbaa !47
  %200 = sub nsw i32 0, %199
  %201 = load ptr, ptr %9, align 8, !tbaa !60
  %202 = getelementptr inbounds nuw %struct.AVFrame, ptr %201, i32 0, i32 1
  %203 = load i32, ptr %10, align 4, !tbaa !47
  %204 = sext i32 %203 to i64
  %205 = getelementptr inbounds [8 x i32], ptr %202, i64 0, i64 %204
  store i32 %200, ptr %205, align 4, !tbaa !47
  br label %206

206:                                              ; preds = %174, %166
  br label %207

207:                                              ; preds = %206
  %208 = load i32, ptr %10, align 4, !tbaa !47
  %209 = add nsw i32 %208, 1
  store i32 %209, ptr %10, align 4, !tbaa !47
  br label %163, !llvm.loop !83

210:                                              ; preds = %163
  call void @av_frame_free(ptr noundef %5)
  %211 = load ptr, ptr %8, align 8, !tbaa !25
  %212 = load ptr, ptr %9, align 8, !tbaa !60
  %213 = call i32 @ff_filter_frame(ptr noundef %211, ptr noundef %212)
  store i32 %213, ptr %3, align 4
  store i32 1, ptr %11, align 4
  br label %214

214:                                              ; preds = %210, %132
  call void @llvm.lifetime.end.p0(i64 4, ptr %10) #11
  call void @llvm.lifetime.end.p0(i64 8, ptr %9) #11
  call void @llvm.lifetime.end.p0(i64 8, ptr %8) #11
  call void @llvm.lifetime.end.p0(i64 8, ptr %7) #11
  call void @llvm.lifetime.end.p0(i64 8, ptr %6) #11
  %215 = load i32, ptr %3, align 4
  ret i32 %215
}