; Function Attrs: nounwind uwtable
define internal i32 @filter_frame(ptr noundef readonly captures(none) %0, ptr noundef %1) #1 {
  %3 = alloca ptr, align 8
  store ptr %1, ptr %3, align 8, !tbaa !53
  %4 = getelementptr inbounds nuw i8, ptr %0, i64 16
  %5 = load ptr, ptr %4, align 8, !tbaa !55
  %6 = getelementptr inbounds nuw i8, ptr %5, i64 72
  %7 = load ptr, ptr %6, align 8, !tbaa !4
  %8 = getelementptr inbounds nuw i8, ptr %5, i64 56
  %9 = load ptr, ptr %8, align 8, !tbaa !52
  %10 = load ptr, ptr %9, align 8, !tbaa !21
  %11 = getelementptr inbounds nuw i8, ptr %7, i64 116
  %12 = load float, ptr %11, align 4, !tbaa !56
  %13 = getelementptr inbounds nuw i8, ptr %7, i64 92
  %14 = load i32, ptr %13, align 4, !tbaa !57
  %15 = add nsw i32 %14, -1
  %16 = sitofp i32 %15 to float
  %17 = fmul nsz float %12, %16
  %18 = fptoui float %17 to i16
  %19 = getelementptr inbounds nuw i8, ptr %7, i64 26
  store i16 %18, ptr %19, align 2, !tbaa !58
  %20 = getelementptr inbounds nuw i8, ptr %7, i64 28
  %21 = load float, ptr %20, align 4, !tbaa !60
  %22 = fadd nsz float %21, 1.000000e+00
  %23 = fmul nsz float %22, 5.000000e-01
  %24 = fmul nsz float %23, %16
  %25 = fptosi float %24 to i32
  %26 = getelementptr inbounds nuw i8, ptr %7, i64 128
  store i32 %25, ptr %26, align 8, !tbaa !44
  %27 = getelementptr inbounds nuw i8, ptr %7, i64 32
  %28 = load float, ptr %27, align 4, !tbaa !60
  %29 = fadd nsz float %28, 1.000000e+00
  %30 = fmul nsz float %29, 5.000000e-01
  %31 = fmul nsz float %30, %16
  %32 = fptosi float %31 to i32
  %33 = getelementptr inbounds nuw i8, ptr %7, i64 132
  store i32 %32, ptr %33, align 4, !tbaa !44
  %34 = getelementptr inbounds nuw i8, ptr %7, i64 16
  %35 = load float, ptr %34, align 8, !tbaa !61
  %36 = fmul nsz float %35, %16
  %37 = fptosi float %36 to i32
  %38 = getelementptr inbounds nuw i8, ptr %7, i64 12
  store i32 %37, ptr %38, align 4, !tbaa !62
  %39 = getelementptr inbounds nuw i8, ptr %7, i64 148
  %40 = load i32, ptr %39, align 4, !tbaa !63
  %.not = icmp eq i32 %40, 0
  br i1 %.not, label %48, label %41

41:                                               ; preds = %2
  %42 = getelementptr inbounds nuw i8, ptr %7, i64 96
  %43 = load i32, ptr %42, align 8, !tbaa !64
  %44 = shl i32 %43, 1
  %45 = add i32 %40, -17
  %46 = add i32 %45, %44
  %47 = getelementptr inbounds nuw i8, ptr %7, i64 152
  store i32 %46, ptr %47, align 8, !tbaa !65
  br label %59

48:                                               ; preds = %2
  %49 = getelementptr inbounds nuw i8, ptr %1, i64 292
  %50 = load i32, ptr %49, align 4, !tbaa !66
  %.off = add i32 %50, -5
  %switch = icmp ult i32 %.off, 2
  %51 = getelementptr inbounds nuw i8, ptr %7, i64 96
  %52 = load i32, ptr %51, align 8, !tbaa !64
  %53 = shl i32 %52, 1
  %54 = getelementptr inbounds nuw i8, ptr %7, i64 152
  br i1 %switch, label %55, label %57

55:                                               ; preds = %48
  %56 = add i32 %53, -16
  store i32 %56, ptr %54, align 8, !tbaa !65
  br label %59

57:                                               ; preds = %48
  %58 = add i32 %53, -15
  store i32 %58, ptr %54, align 8, !tbaa !65
  br label %59

59:                                               ; preds = %55, %57, %41
  %60 = getelementptr inbounds nuw i8, ptr %10, i64 40
  %61 = load i32, ptr %60, align 8, !tbaa !70
  %62 = getelementptr inbounds nuw i8, ptr %10, i64 44
  %63 = load i32, ptr %62, align 4, !tbaa !71
  %64 = tail call ptr @ff_get_video_buffer(ptr noundef %10, i32 noundef %61, i32 noundef %63) #12
  %.not58 = icmp eq ptr %64, null
  br i1 %.not58, label %65, label %66

65:                                               ; preds = %59
  call void @av_frame_free(ptr noundef nonnull %3) #12
  br label %97

66:                                               ; preds = %59
  %67 = tail call i32 @av_frame_copy_props(ptr noundef nonnull %64, ptr noundef %1) #12
  %68 = getelementptr inbounds nuw i8, ptr %7, i64 176
  %69 = load ptr, ptr %68, align 8, !tbaa !72
  %70 = getelementptr inbounds nuw i8, ptr %7, i64 84
  %71 = load i32, ptr %70, align 4, !tbaa !73
  tail call void %69(ptr noundef nonnull %7, ptr noundef %1, ptr noundef nonnull %64, i32 noundef %71) #12
  %72 = getelementptr inbounds nuw i8, ptr %7, i64 184
  %73 = load ptr, ptr %72, align 8, !tbaa !74
  %74 = getelementptr inbounds nuw i8, ptr %7, i64 76
  %75 = load i32, ptr %74, align 4, !tbaa !38
  %76 = getelementptr inbounds nuw i8, ptr %7, i64 80
  %77 = load i32, ptr %76, align 8, !tbaa !42
  %78 = load i32, ptr %70, align 4, !tbaa !73
  %79 = getelementptr inbounds nuw i8, ptr %7, i64 152
  %80 = load i32, ptr %79, align 8, !tbaa !65
  tail call void %73(ptr noundef nonnull %7, ptr noundef nonnull %64, i32 noundef %75, i32 noundef %77, i32 noundef %78, i32 noundef %80) #12
  %81 = getelementptr inbounds nuw i8, ptr %64, i64 64
  br label %82

82:                                               ; preds = %66, %94
  %indvars.iv = phi i64 [ 0, %66 ], [ %indvars.iv.next, %94 ]
  %83 = getelementptr inbounds nuw [8 x ptr], ptr %64, i64 0, i64 %indvars.iv
  %84 = load ptr, ptr %83, align 8, !tbaa !75
  %.not59 = icmp eq ptr %84, null
  br i1 %.not59, label %94, label %85

85:                                               ; preds = %82
  %86 = load i32, ptr %13, align 4, !tbaa !57
  %87 = add nsw i32 %86, -1
  %88 = getelementptr inbounds nuw [8 x i32], ptr %81, i64 0, i64 %indvars.iv
  %89 = load i32, ptr %88, align 4, !tbaa !44
  %90 = mul nsw i32 %87, %89
  %91 = sext i32 %90 to i64
  %92 = getelementptr inbounds i8, ptr %84, i64 %91
  store ptr %92, ptr %83, align 8, !tbaa !75
  %93 = sub nsw i32 0, %89
  store i32 %93, ptr %88, align 4, !tbaa !44
  br label %94

94:                                               ; preds = %82, %85
  %indvars.iv.next = add nuw nsw i64 %indvars.iv, 1
  %exitcond.not = icmp eq i64 %indvars.iv.next, 4
  br i1 %exitcond.not, label %95, label %82, !llvm.loop !76

95:                                               ; preds = %94
  call void @av_frame_free(ptr noundef nonnull %3) #12
  %96 = call i32 @ff_filter_frame(ptr noundef %10, ptr noundef nonnull %64) #12
  br label %97

97:                                               ; preds = %95, %65
  %.054 = phi i32 [ %96, %95 ], [ -12, %65 ]
  ret i32 %.054
}